target datalayout = "e-m:e-p270:32:32-p271:32:32-p272:64:64-i64:64-i128:128-f80:128-n8:16:32:64-S128"
target triple = "x86_64-pc-linux-gnu"

%struct.FunctionCallInfoBaseData = type { ptr, ptr, ptr, i32, i8, i16, [0 x %struct.NullableDatum] }
%struct.NullableDatum = type { i64, i8 }
%struct.JsonbInState = type { ptr, ptr, i8, ptr }
%struct.JsonbValue = type { i32, %union.anon }
%union.anon = type { %struct.anon.2 }
%struct.anon.2 = type { i32, ptr, i8 }
%struct.anon.1 = type { i32, ptr }
%struct.ArrayType = type { i32, i32, i32, i32 }

@.str.1 = private unnamed_addr constant [8 x i8] c"jsonb.c\00", align 1
@.str.23 = private unnamed_addr constant [33 x i8] c"wrong number of array subscripts\00", align 1
@.str.24 = private unnamed_addr constant [38 x i8] c"null value not allowed for object key\00", align 1
@__func__.jsonb_object_two_arg = private unnamed_addr constant [21 x i8] c"jsonb_object_two_arg\00", align 1
@.str.25 = private unnamed_addr constant [28 x i8] c"mismatched array dimensions\00", align 1

; Function Attrs: inlinehint nounwind uwtable
define internal i64 @PointerGetDatum(ptr noundef %0) #2 {
  %2 = alloca ptr, align 8
  store ptr %0, ptr %2, align 8
  %3 = load ptr, ptr %2, align 8
  %4 = ptrtoint ptr %3 to i64
  ret i64 %4
}

; Function Attrs: inlinehint nounwind uwtable
define internal ptr @DatumGetPointer(i64 noundef %0) #2 {
  %2 = alloca i64, align 8
  store i64 %0, ptr %2, align 8
  %3 = load i64, ptr %2, align 8
  %4 = inttoptr i64 %3 to ptr
  ret ptr %4
}

; Function Attrs: nounwind uwtable
define dso_local i64 @jsonb_object_two_arg(ptr noundef %0) #0 {
  %2 = alloca ptr, align 8
  %3 = alloca ptr, align 8
  %4 = alloca ptr, align 8
  %5 = alloca i32, align 4
  %6 = alloca i32, align 4
  %7 = alloca ptr, align 8
  %8 = alloca ptr, align 8
  %9 = alloca ptr, align 8
  %10 = alloca ptr, align 8
  %11 = alloca i32, align 4
  %12 = alloca i32, align 4
  %13 = alloca i32, align 4
  %14 = alloca %struct.JsonbInState, align 8
  %15 = alloca %struct.JsonbValue, align 8
  %16 = alloca ptr, align 8
  %17 = alloca i32, align 4
  store ptr %0, ptr %2, align 8
  call void @llvm.lifetime.start.p0(i64 8, ptr %3) #8
  %18 = load ptr, ptr %2, align 8
  %19 = getelementptr inbounds nuw %struct.FunctionCallInfoBaseData, ptr %18, i32 0, i32 6
  %20 = getelementptr inbounds [0 x %struct.NullableDatum], ptr %19, i64 0, i64 0
  %21 = getelementptr inbounds nuw %struct.NullableDatum, ptr %20, i32 0, i32 0
  %22 = load i64, ptr %21, align 8
  %23 = call ptr @DatumGetPointer(i64 noundef %22)
  %24 = call ptr @pg_detoast_datum(ptr noundef %23)
  store ptr %24, ptr %3, align 8
  call void @llvm.lifetime.start.p0(i64 8, ptr %4) #8
  %25 = load ptr, ptr %2, align 8
  %26 = getelementptr inbounds nuw %struct.FunctionCallInfoBaseData, ptr %25, i32 0, i32 6
  %27 = getelementptr inbounds [0 x %struct.NullableDatum], ptr %26, i64 0, i64 1
  %28 = getelementptr inbounds nuw %struct.NullableDatum, ptr %27, i32 0, i32 0
  %29 = load i64, ptr %28, align 8
  %30 = call ptr @DatumGetPointer(i64 noundef %29)
  %31 = call ptr @pg_detoast_datum(ptr noundef %30)
  store ptr %31, ptr %4, align 8
  call void @llvm.lifetime.start.p0(i64 4, ptr %5) #8
  %32 = load ptr, ptr %3, align 8
  %33 = getelementptr inbounds nuw %struct.ArrayType, ptr %32, i32 0, i32 1
  %34 = load i32, ptr %33, align 4
  store i32 %34, ptr %5, align 4
  call void @llvm.lifetime.start.p0(i64 4, ptr %6) #8
  %35 = load ptr, ptr %4, align 8
  %36 = getelementptr inbounds nuw %struct.ArrayType, ptr %35, i32 0, i32 1
  %37 = load i32, ptr %36, align 4
  store i32 %37, ptr %6, align 4
  call void @llvm.lifetime.start.p0(i64 8, ptr %7) #8
  call void @llvm.lifetime.start.p0(i64 8, ptr %8) #8
  call void @llvm.lifetime.start.p0(i64 8, ptr %9) #8
  call void @llvm.lifetime.start.p0(i64 8, ptr %10) #8
  call void @llvm.lifetime.start.p0(i64 4, ptr %11) #8
  call void @llvm.lifetime.start.p0(i64 4, ptr %12) #8
  call void @llvm.lifetime.start.p0(i64 4, ptr %13) #8
  call void @llvm.lifetime.start.p0(i64 32, ptr %14) #8
  call void @llvm.memset.p0.i64(ptr align 8 %14, i8 0, i64 32, i1 false)
  %38 = getelementptr inbounds nuw %struct.JsonbInState, ptr %14, i32 0, i32 0
  %39 = call ptr @pushJsonbValue(ptr noundef %38, i32 noundef 6, ptr noundef null)
  %40 = load i32, ptr %5, align 4
  %41 = icmp sgt i32 %40, 1
  br i1 %41, label %46, label %42

42:                                               ; preds = %1
  %43 = load i32, ptr %5, align 4
  %44 = load i32, ptr %6, align 4
  %45 = icmp ne i32 %43, %44
  br i1 %45, label %46, label %58

46:                                               ; preds = %42, %1
  br label %47

47:                                               ; preds = %46
  br i1 true, label %48, label %50

48:                                               ; preds = %47
  %49 = call zeroext i1 @errstart_cold(i32 noundef 21, ptr noundef null) #10
  br i1 %49, label %52, label %55

50:                                               ; preds = %47
  %51 = call zeroext i1 @errstart(i32 noundef 21, ptr noundef null)
  br i1 %51, label %52, label %55

52:                                               ; preds = %50, %48
  %53 = call i32 @errcode(i32 noundef 352845954)
  %54 = call i32 (ptr, ...) @errmsg(ptr noundef @.str.23)
  call void @errfinish(ptr noundef @.str.1, i32 noundef 1401, ptr noundef @__func__.jsonb_object_two_arg)
  br label %55

55:                                               ; preds = %52, %50, %48
  unreachable

56:                                               ; No predecessors!
  br label %57

57:                                               ; preds = %56
  br label %58

58:                                               ; preds = %57, %42
  %59 = load i32, ptr %5, align 4
  %60 = icmp eq i32 %59, 0
  br i1 %60, label %61, label %62

61:                                               ; preds = %58
  br label %161

62:                                               ; preds = %58
  %63 = load ptr, ptr %3, align 8
  call void @deconstruct_array_builtin(ptr noundef %63, i32 noundef 25, ptr noundef %7, ptr noundef %9, ptr noundef %11)
  %64 = load ptr, ptr %4, align 8
  call void @deconstruct_array_builtin(ptr noundef %64, i32 noundef 25, ptr noundef %8, ptr noundef %10, ptr noundef %12)
  %65 = load i32, ptr %11, align 4
  %66 = load i32, ptr %12, align 4
  %67 = icmp ne i32 %65, %66
  br i1 %67, label %68, label %80

68:                                               ; preds = %62
  br label %69

69:                                               ; preds = %68
  br i1 true, label %70, label %72

70:                                               ; preds = %69
  %71 = call zeroext i1 @errstart_cold(i32 noundef 21, ptr noundef null) #10
  br i1 %71, label %74, label %77

72:                                               ; preds = %69
  %73 = call zeroext i1 @errstart(i32 noundef 21, ptr noundef null)
  br i1 %73, label %74, label %77

74:                                               ; preds = %72, %70
  %75 = call i32 @errcode(i32 noundef 352845954)
  %76 = call i32 (ptr, ...) @errmsg(ptr noundef @.str.25)
  call void @errfinish(ptr noundef @.str.1, i32 noundef 1412, ptr noundef @__func__.jsonb_object_two_arg)
  br label %77

77:                                               ; preds = %74, %72, %70
  unreachable

78:                                               ; No predecessors!
  br label %79

79:                                               ; preds = %78
  br label %80

80:                                               ; preds = %79, %62
  store i32 0, ptr %13, align 4
  br label %81

81:                                               ; preds = %153, %80
  %82 = load i32, ptr %13, align 4
  %83 = load i32, ptr %11, align 4
  %84 = icmp slt i32 %82, %83
  br i1 %84, label %85, label %156

85:                                               ; preds = %81
  call void @llvm.lifetime.start.p0(i64 32, ptr %15) #8
  call void @llvm.lifetime.start.p0(i64 8, ptr %16) #8
  call void @llvm.lifetime.start.p0(i64 4, ptr %17) #8
  %86 = load ptr, ptr %9, align 8
  %87 = load i32, ptr %13, align 4
  %88 = sext i32 %87 to i64
  %89 = getelementptr inbounds i8, ptr %86, i64 %88
  %90 = load i8, ptr %89, align 1, !range !4, !noundef !5
  %91 = trunc i8 %90 to i1
  br i1 %91, label %92, label %104

92:                                               ; preds = %85
  br label %93

93:                                               ; preds = %92
  br i1 true, label %94, label %96

94:                                               ; preds = %93
  %95 = call zeroext i1 @errstart_cold(i32 noundef 21, ptr noundef null) #10
  br i1 %95, label %98, label %101

96:                                               ; preds = %93
  %97 = call zeroext i1 @errstart(i32 noundef 21, ptr noundef null)
  br i1 %97, label %98, label %101

98:                                               ; preds = %96, %94
  %99 = call i32 @errcode(i32 noundef 67108994)
  %100 = call i32 (ptr, ...) @errmsg(ptr noundef @.str.24)
  call void @errfinish(ptr noundef @.str.1, i32 noundef 1423, ptr noundef @__func__.jsonb_object_two_arg)
  br label %101

101:                                              ; preds = %98, %96, %94
  unreachable

102:                                              ; No predecessors!
  br label %103

103:                                              ; preds = %102
  br label %104

104:                                              ; preds = %103, %85
  %105 = load ptr, ptr %7, align 8
  %106 = load i32, ptr %13, align 4
  %107 = sext i32 %106 to i64
  %108 = getelementptr inbounds i64, ptr %105, i64 %107
  %109 = load i64, ptr %108, align 8
  %110 = call ptr @DatumGetPointer(i64 noundef %109)
  %111 = call ptr @text_to_cstring(ptr noundef %110)
  store ptr %111, ptr %16, align 8
  %112 = load ptr, ptr %16, align 8
  %113 = call i64 @strlen(ptr noundef %112) #9
  %114 = trunc i64 %113 to i32
  store i32 %114, ptr %17, align 4
  %115 = getelementptr inbounds nuw %struct.JsonbValue, ptr %15, i32 0, i32 0
  store i32 1, ptr %115, align 8
  %116 = load i32, ptr %17, align 4
  %117 = getelementptr inbounds nuw %struct.JsonbValue, ptr %15, i32 0, i32 1
  %118 = getelementptr inbounds nuw %struct.anon.1, ptr %117, i32 0, i32 0
  store i32 %116, ptr %118, align 8
  %119 = load ptr, ptr %16, align 8
  %120 = getelementptr inbounds nuw %struct.JsonbValue, ptr %15, i32 0, i32 1
  %121 = getelementptr inbounds nuw %struct.anon.1, ptr %120, i32 0, i32 1
  store ptr %119, ptr %121, align 8
  %122 = getelementptr inbounds nuw %struct.JsonbInState, ptr %14, i32 0, i32 0
  %123 = call ptr @pushJsonbValue(ptr noundef %122, i32 noundef 1, ptr noundef %15)
  %124 = load ptr, ptr %10, align 8
  %125 = load i32, ptr %13, align 4
  %126 = sext i32 %125 to i64
  %127 = getelementptr inbounds i8, ptr %124, i64 %126
  %128 = load i8, ptr %127, align 1, !range !4, !noundef !5
  %129 = trunc i8 %128 to i1
  br i1 %129, label %130, label %132

130:                                              ; preds = %104
  %131 = getelementptr inbounds nuw %struct.JsonbValue, ptr %15, i32 0, i32 0
  store i32 0, ptr %131, align 8
  br label %150

132:                                              ; preds = %104
  %133 = load ptr, ptr %8, align 8
  %134 = load i32, ptr %13, align 4
  %135 = sext i32 %134 to i64
  %136 = getelementptr inbounds i64, ptr %133, i64 %135
  %137 = load i64, ptr %136, align 8
  %138 = call ptr @DatumGetPointer(i64 noundef %137)
  %139 = call ptr @text_to_cstring(ptr noundef %138)
  store ptr %139, ptr %16, align 8
  %140 = load ptr, ptr %16, align 8
  %141 = call i64 @strlen(ptr noundef %140) #9
  %142 = trunc i64 %141 to i32
  store i32 %142, ptr %17, align 4
  %143 = getelementptr inbounds nuw %struct.JsonbValue, ptr %15, i32 0, i32 0
  store i32 1, ptr %143, align 8
  %144 = load i32, ptr %17, align 4
  %145 = getelementptr inbounds nuw %struct.JsonbValue, ptr %15, i32 0, i32 1
  %146 = getelementptr inbounds nuw %struct.anon.1, ptr %145, i32 0, i32 0
  store i32 %144, ptr %146, align 8
  %147 = load ptr, ptr %16, align 8
  %148 = getelementptr inbounds nuw %struct.JsonbValue, ptr %15, i32 0, i32 1
  %149 = getelementptr inbounds nuw %struct.anon.1, ptr %148, i32 0, i32 1
  store ptr %147, ptr %149, align 8
  br label %150

150:                                              ; preds = %132, %130
  %151 = getelementptr inbounds nuw %struct.JsonbInState, ptr %14, i32 0, i32 0
  %152 = call ptr @pushJsonbValue(ptr noundef %151, i32 noundef 2, ptr noundef %15)
  call void @llvm.lifetime.end.p0(i64 4, ptr %17) #8
  call void @llvm.lifetime.end.p0(i64 8, ptr %16) #8
  call void @llvm.lifetime.end.p0(i64 32, ptr %15) #8
  br label %153

153:                                              ; preds = %150
  %154 = load i32, ptr %13, align 4
  %155 = add i32 %154, 1
  store i32 %155, ptr %13, align 4
  br label %81, !llvm.loop !12

156:                                              ; preds = %81
  %157 = load ptr, ptr %7, align 8
  call void @pfree(ptr noundef %157)
  %158 = load ptr, ptr %9, align 8
  call void @pfree(ptr noundef %158)
  %159 = load ptr, ptr %8, align 8
  call void @pfree(ptr noundef %159)
  %160 = load ptr, ptr %10, align 8
  call void @pfree(ptr noundef %160)
  br label %161

161:                                              ; preds = %156, %61
  %162 = getelementptr inbounds nuw %struct.JsonbInState, ptr %14, i32 0, i32 0
  %163 = call ptr @pushJsonbValue(ptr noundef %162, i32 noundef 7, ptr noundef null)
  %164 = getelementptr inbounds nuw %struct.JsonbInState, ptr %14, i32 0, i32 1
  store ptr %163, ptr %164, align 8
  %165 = getelementptr inbounds nuw %struct.JsonbInState, ptr %14, i32 0, i32 1
  %166 = load ptr, ptr %165, align 8
  %167 = call ptr @JsonbValueToJsonb(ptr noundef %166)
  %168 = call i64 @PointerGetDatum(ptr noundef %167)
  call void @llvm.lifetime.end.p0(i64 32, ptr %14) #8
  call void @llvm.lifetime.end.p0(i64 4, ptr %13) #8
  call void @llvm.lifetime.end.p0(i64 4, ptr %12) #8
  call void @llvm.lifetime.end.p0(i64 4, ptr %11) #8
  call void @llvm.lifetime.end.p0(i64 8, ptr %10) #8
  call void @llvm.lifetime.end.p0(i64 8, ptr %9) #8
  call void @llvm.lifetime.end.p0(i64 8, ptr %8) #8
  call void @llvm.lifetime.end.p0(i64 8, ptr %7) #8
  call void @llvm.lifetime.end.p0(i64 4, ptr %6) #8
  call void @llvm.lifetime.end.p0(i64 4, ptr %5) #8
  call void @llvm.lifetime.end.p0(i64 8, ptr %4) #8
  call void @llvm.lifetime.end.p0(i64 8, ptr %3) #8
  ret i64 %168
}