; Function Attrs: nounwind uwtable
define dso_local i64 @jsonb_object_two_arg(ptr noundef readonly captures(none) %0) local_unnamed_addr #0 {
  %2 = alloca ptr, align 8
  %3 = alloca ptr, align 8
  %4 = alloca ptr, align 8
  %5 = alloca ptr, align 8
  %6 = alloca i32, align 4
  %7 = alloca i32, align 4
  %8 = alloca %struct.JsonbInState, align 8
  %9 = alloca %struct.JsonbValue, align 8
  %10 = getelementptr inbounds nuw i8, ptr %0, i64 32
  %11 = load i64, ptr %10, align 8
  %12 = inttoptr i64 %11 to ptr
  %13 = tail call ptr @pg_detoast_datum(ptr noundef %12) #11
  %14 = getelementptr inbounds nuw i8, ptr %0, i64 48
  %15 = load i64, ptr %14, align 8
  %16 = inttoptr i64 %15 to ptr
  %17 = tail call ptr @pg_detoast_datum(ptr noundef %16) #11
  %18 = getelementptr inbounds nuw i8, ptr %13, i64 4
  %19 = load i32, ptr %18, align 4
  %20 = getelementptr inbounds nuw i8, ptr %17, i64 4
  %21 = load i32, ptr %20, align 4
  call void @llvm.lifetime.start.p0(i64 8, ptr nonnull %2) #11
  call void @llvm.lifetime.start.p0(i64 8, ptr nonnull %3) #11
  call void @llvm.lifetime.start.p0(i64 8, ptr nonnull %4) #11
  call void @llvm.lifetime.start.p0(i64 8, ptr nonnull %5) #11
  call void @llvm.lifetime.start.p0(i64 4, ptr nonnull %6) #11
  call void @llvm.lifetime.start.p0(i64 4, ptr nonnull %7) #11
  call void @llvm.lifetime.start.p0(i64 32, ptr nonnull %8) #11
  call void @llvm.memset.p0.i64(ptr noundef nonnull align 8 dereferenceable(32) %8, i8 0, i64 32, i1 false)
  %22 = call ptr @pushJsonbValue(ptr noundef nonnull %8, i32 noundef 6, ptr noundef null) #11
  %23 = icmp slt i32 %19, 2
  %.not = icmp eq i32 %19, %21
  %or.cond = select i1 %23, i1 %.not, i1 false
  br i1 %or.cond, label %28, label %24

24:                                               ; preds = %1
  %25 = call zeroext i1 @errstart_cold(i32 noundef 21, ptr noundef null) #12
  call void @llvm.assume(i1 %25)
  %26 = call i32 @errcode(i32 noundef 352845954) #11
  %27 = call i32 (ptr, ...) @errmsg(ptr noundef nonnull @.str.23) #11
  call void @errfinish(ptr noundef nonnull @.str.1, i32 noundef 1401, ptr noundef nonnull @__func__.jsonb_object_two_arg) #11
  unreachable

28:                                               ; preds = %1
  %29 = icmp eq i32 %19, 0
  br i1 %29, label %79, label %30

30:                                               ; preds = %28
  call void @deconstruct_array_builtin(ptr noundef nonnull %13, i32 noundef 25, ptr noundef nonnull %2, ptr noundef nonnull %4, ptr noundef nonnull %6) #11
  call void @deconstruct_array_builtin(ptr noundef nonnull %17, i32 noundef 25, ptr noundef nonnull %3, ptr noundef nonnull %5, ptr noundef nonnull %7) #11
  %31 = load i32, ptr %6, align 4
  %32 = load i32, ptr %7, align 4
  %.not22 = icmp eq i32 %31, %32
  br i1 %.not22, label %.preheader, label %36

.preheader:                                       ; preds = %30
  %33 = icmp sgt i32 %31, 0
  br i1 %33, label %.lr.ph, label %._crit_edge

.lr.ph:                                           ; preds = %.preheader
  %34 = getelementptr inbounds nuw i8, ptr %9, i64 8
  %35 = getelementptr inbounds nuw i8, ptr %9, i64 16
  br label %40

36:                                               ; preds = %30
  %37 = call zeroext i1 @errstart_cold(i32 noundef 21, ptr noundef null) #12
  call void @llvm.assume(i1 %37)
  %38 = call i32 @errcode(i32 noundef 352845954) #11
  %39 = call i32 (ptr, ...) @errmsg(ptr noundef nonnull @.str.25) #11
  call void @errfinish(ptr noundef nonnull @.str.1, i32 noundef 1412, ptr noundef nonnull @__func__.jsonb_object_two_arg) #11
  unreachable

40:                                               ; preds = %.lr.ph, %70
  %indvars.iv = phi i64 [ 0, %.lr.ph ], [ %indvars.iv.next, %70 ]
  call void @llvm.lifetime.start.p0(i64 32, ptr nonnull %9) #11
  %41 = load ptr, ptr %4, align 8
  %42 = getelementptr inbounds nuw i8, ptr %41, i64 %indvars.iv
  %43 = load i8, ptr %42, align 1, !range !7, !noundef !8
  %44 = trunc nuw i8 %43 to i1
  br i1 %44, label %45, label %49

45:                                               ; preds = %40
  %46 = call zeroext i1 @errstart_cold(i32 noundef 21, ptr noundef null) #12
  call void @llvm.assume(i1 %46)
  %47 = call i32 @errcode(i32 noundef 67108994) #11
  %48 = call i32 (ptr, ...) @errmsg(ptr noundef nonnull @.str.24) #11
  call void @errfinish(ptr noundef nonnull @.str.1, i32 noundef 1423, ptr noundef nonnull @__func__.jsonb_object_two_arg) #11
  unreachable

49:                                               ; preds = %40
  %50 = load ptr, ptr %2, align 8
  %51 = getelementptr inbounds nuw i64, ptr %50, i64 %indvars.iv
  %52 = load i64, ptr %51, align 8
  %53 = inttoptr i64 %52 to ptr
  %54 = call ptr @text_to_cstring(ptr noundef %53) #11
  %55 = call i64 @strlen(ptr noundef nonnull dereferenceable(1) %54) #10
  %56 = trunc i64 %55 to i32
  store i32 1, ptr %9, align 8
  store i32 %56, ptr %34, align 8
  store ptr %54, ptr %35, align 8
  %57 = call ptr @pushJsonbValue(ptr noundef nonnull %8, i32 noundef 1, ptr noundef nonnull %9) #11
  %58 = load ptr, ptr %5, align 8
  %59 = getelementptr inbounds nuw i8, ptr %58, i64 %indvars.iv
  %60 = load i8, ptr %59, align 1, !range !7, !noundef !8
  %61 = trunc nuw i8 %60 to i1
  br i1 %61, label %70, label %62

62:                                               ; preds = %49
  %63 = load ptr, ptr %3, align 8
  %64 = getelementptr inbounds nuw i64, ptr %63, i64 %indvars.iv
  %65 = load i64, ptr %64, align 8
  %66 = inttoptr i64 %65 to ptr
  %67 = call ptr @text_to_cstring(ptr noundef %66) #11
  %68 = call i64 @strlen(ptr noundef nonnull dereferenceable(1) %67) #10
  %69 = trunc i64 %68 to i32
  store i32 %69, ptr %34, align 8
  store ptr %67, ptr %35, align 8
  br label %70

70:                                               ; preds = %49, %62
  %.sink = phi i32 [ 1, %62 ], [ 0, %49 ]
  store i32 %.sink, ptr %9, align 8
  %71 = call ptr @pushJsonbValue(ptr noundef nonnull %8, i32 noundef 2, ptr noundef nonnull %9) #11
  call void @llvm.lifetime.end.p0(i64 32, ptr nonnull %9) #11
  %indvars.iv.next = add nuw nsw i64 %indvars.iv, 1
  %72 = load i32, ptr %6, align 4
  %73 = sext i32 %72 to i64
  %74 = icmp slt i64 %indvars.iv.next, %73
  br i1 %74, label %40, label %._crit_edge, !llvm.loop !16

._crit_edge:                                      ; preds = %70, %.preheader
  %75 = load ptr, ptr %2, align 8
  call void @pfree(ptr noundef %75) #11
  %76 = load ptr, ptr %4, align 8
  call void @pfree(ptr noundef %76) #11
  %77 = load ptr, ptr %3, align 8
  call void @pfree(ptr noundef %77) #11
  %78 = load ptr, ptr %5, align 8
  call void @pfree(ptr noundef %78) #11
  br label %79

79:                                               ; preds = %28, %._crit_edge
  %80 = call ptr @pushJsonbValue(ptr noundef nonnull %8, i32 noundef 7, ptr noundef null) #11
  %81 = getelementptr inbounds nuw i8, ptr %8, i64 8
  store ptr %80, ptr %81, align 8
  %82 = call ptr @JsonbValueToJsonb(ptr noundef %80) #11
  %83 = ptrtoint ptr %82 to i64
  call void @llvm.lifetime.end.p0(i64 32, ptr nonnull %8) #11
  call void @llvm.lifetime.end.p0(i64 4, ptr nonnull %7) #11
  call void @llvm.lifetime.end.p0(i64 4, ptr nonnull %6) #11
  call void @llvm.lifetime.end.p0(i64 8, ptr nonnull %5) #11
  call void @llvm.lifetime.end.p0(i64 8, ptr nonnull %4) #11
  call void @llvm.lifetime.end.p0(i64 8, ptr nonnull %3) #11
  call void @llvm.lifetime.end.p0(i64 8, ptr nonnull %2) #11
  ret i64 %83
}